; Function Attrs: mustprogress uwtable
define void @_ZN2cv13destroyWindowERKNSt7__cxx1112basic_stringIcSt11char_traitsIcESaIcEEE(ptr noundef nonnull align 8 dereferenceable(32) %0) local_unnamed_addr #3 personality ptr @__gxx_personality_v0 {
  %2 = alloca %"class.cv::utils::trace::details::Region", align 8
  %3 = alloca %"class.std::shared_ptr", align 8
  call void @_ZN2cv5utils5trace7details6RegionC1ERKNS3_21LocationStaticStorageE(ptr noundef nonnull align 8 dereferenceable(12) %2, ptr noundef nonnull align 8 dereferenceable(32) @_ZZN2cv13destroyWindowERKNSt7__cxx1112basic_stringIcSt11char_traitsIcESaIcEEEE25__cv_trace_location_fn490)
  invoke fastcc void @_ZN2cv4implL11findWindow_ERKNSt7__cxx1112basic_stringIcSt11char_traitsIcESaIcEEE(ptr dead_on_unwind noalias nonnull writable align 8 %3, ptr noundef nonnull align 8 dereferenceable(32) %0)
          to label %4 unwind label %11

4:                                                ; preds = %1
  %5 = load ptr, ptr %3, align 8
  %.not = icmp eq ptr %5, null
  br i1 %.not, label %.critedge, label %6

6:                                                ; preds = %4
  %7 = load ptr, ptr %5, align 8
  %8 = getelementptr inbounds i8, ptr %7, i64 32
  %9 = load ptr, ptr %8, align 8
  invoke void %9(ptr noundef nonnull align 8 dereferenceable(8) %5)
          to label %10 unwind label %13

10:                                               ; preds = %6
  invoke fastcc void @_ZN2cv4implL21cleanupClosedWindows_Ev()
          to label %15 unwind label %13

11:                                               ; preds = %_ZNSt10shared_ptrIN2cv15highgui_backend8UIWindowEED2Ev.exit13, %1
  %12 = landingpad { ptr, i32 }
          cleanup
  br label %95

13:                                               ; preds = %10, %6
  %14 = landingpad { ptr, i32 }
          cleanup
  call void @_ZNSt10shared_ptrIN2cv15highgui_backend8UIWindowEED2Ev(ptr noundef nonnull align 8 dereferenceable(16) %3) #20
  br label %95

15:                                               ; preds = %10
  %16 = getelementptr inbounds i8, ptr %3, i64 8
  %17 = load ptr, ptr %16, align 8
  %.not.i.i.i = icmp eq ptr %17, null
  br i1 %.not.i.i.i, label %_ZNSt10shared_ptrIN2cv15highgui_backend8UIWindowEED2Ev.exit, label %18

18:                                               ; preds = %15
  %19 = getelementptr inbounds i8, ptr %17, i64 8
  %20 = load atomic i64, ptr %19 acquire, align 8
  %21 = icmp eq i64 %20, 4294967297
  %22 = trunc i64 %20 to i32
  br i1 %21, label %23, label %28

23:                                               ; preds = %18
  store i32 0, ptr %19, align 8
  %24 = getelementptr inbounds i8, ptr %17, i64 12
  store i32 0, ptr %24, align 4
  %25 = load ptr, ptr %17, align 8
  %26 = getelementptr inbounds i8, ptr %25, i64 16
  %27 = load ptr, ptr %26, align 8
  call void %27(ptr noundef nonnull align 8 dereferenceable(16) %17) #20
  br label %_ZNSt16_Sp_counted_baseILN9__gnu_cxx12_Lock_policyE2EE24_M_release_last_use_coldEv.exit.sink.split.i.i.i.i

28:                                               ; preds = %18
  %29 = load i8, ptr @__libc_single_threaded, align 1
  %.not.i.i.i.i = icmp eq i8 %29, 0
  br i1 %.not.i.i.i.i, label %32, label %30

30:                                               ; preds = %28
  %31 = add nsw i32 %22, -1
  store i32 %31, ptr %19, align 4
  br label %34

32:                                               ; preds = %28
  %33 = atomicrmw volatile add ptr %19, i32 -1 acq_rel, align 4
  br label %34

34:                                               ; preds = %32, %30
  %.0.i.i.i.i = phi i32 [ %22, %30 ], [ %33, %32 ]
  %35 = icmp eq i32 %.0.i.i.i.i, 1
  br i1 %35, label %36, label %_ZNSt10shared_ptrIN2cv15highgui_backend8UIWindowEED2Ev.exit

36:                                               ; preds = %34
  %37 = load ptr, ptr %17, align 8
  %38 = getelementptr inbounds i8, ptr %37, i64 16
  %39 = load ptr, ptr %38, align 8
  call void %39(ptr noundef nonnull align 8 dereferenceable(16) %17) #20
  %40 = getelementptr inbounds i8, ptr %17, i64 12
  %41 = load i8, ptr @__libc_single_threaded, align 1
  %.not.i.i.i.i.i.i = icmp eq i8 %41, 0
  br i1 %.not.i.i.i.i.i.i, label %45, label %42

42:                                               ; preds = %36
  %43 = load i32, ptr %40, align 4
  %44 = add nsw i32 %43, -1
  store i32 %44, ptr %40, align 4
  br label %47

45:                                               ; preds = %36
  %46 = atomicrmw volatile add ptr %40, i32 -1 acq_rel, align 4
  br label %47

47:                                               ; preds = %45, %42
  %.0.i.i.i.i.i.i = phi i32 [ %43, %42 ], [ %46, %45 ]
  %48 = icmp eq i32 %.0.i.i.i.i.i.i, 1
  br i1 %48, label %_ZNSt16_Sp_counted_baseILN9__gnu_cxx12_Lock_policyE2EE24_M_release_last_use_coldEv.exit.sink.split.i.i.i.i, label %_ZNSt10shared_ptrIN2cv15highgui_backend8UIWindowEED2Ev.exit

_ZNSt16_Sp_counted_baseILN9__gnu_cxx12_Lock_policyE2EE24_M_release_last_use_coldEv.exit.sink.split.i.i.i.i: ; preds = %47, %23
  %49 = load ptr, ptr %17, align 8
  %50 = getelementptr inbounds i8, ptr %49, i64 24
  %51 = load ptr, ptr %50, align 8
  call void %51(ptr noundef nonnull align 8 dereferenceable(16) %17) #20
  br label %_ZNSt10shared_ptrIN2cv15highgui_backend8UIWindowEED2Ev.exit

.critedge:                                        ; preds = %4
  %52 = getelementptr inbounds i8, ptr %3, i64 8
  %53 = load ptr, ptr %52, align 8
  %.not.i.i.i7 = icmp eq ptr %53, null
  br i1 %.not.i.i.i7, label %_ZNSt10shared_ptrIN2cv15highgui_backend8UIWindowEED2Ev.exit13, label %54

54:                                               ; preds = %.critedge
  %55 = getelementptr inbounds i8, ptr %53, i64 8
  %56 = load atomic i64, ptr %55 acquire, align 8
  %57 = icmp eq i64 %56, 4294967297
  %58 = trunc i64 %56 to i32
  br i1 %57, label %59, label %64

59:                                               ; preds = %54
  store i32 0, ptr %55, align 8
  %60 = getelementptr inbounds i8, ptr %53, i64 12
  store i32 0, ptr %60, align 4
  %61 = load ptr, ptr %53, align 8
  %62 = getelementptr inbounds i8, ptr %61, i64 16
  %63 = load ptr, ptr %62, align 8
  call void %63(ptr noundef nonnull align 8 dereferenceable(16) %53) #20
  br label %_ZNSt16_Sp_counted_baseILN9__gnu_cxx12_Lock_policyE2EE24_M_release_last_use_coldEv.exit.sink.split.i.i.i.i12

64:                                               ; preds = %54
  %65 = load i8, ptr @__libc_single_threaded, align 1
  %.not.i.i.i.i8 = icmp eq i8 %65, 0
  br i1 %.not.i.i.i.i8, label %68, label %66

66:                                               ; preds = %64
  %67 = add nsw i32 %58, -1
  store i32 %67, ptr %55, align 4
  br label %70

68:                                               ; preds = %64
  %69 = atomicrmw volatile add ptr %55, i32 -1 acq_rel, align 4
  br label %70

70:                                               ; preds = %68, %66
  %.0.i.i.i.i9 = phi i32 [ %58, %66 ], [ %69, %68 ]
  %71 = icmp eq i32 %.0.i.i.i.i9, 1
  br i1 %71, label %72, label %_ZNSt10shared_ptrIN2cv15highgui_backend8UIWindowEED2Ev.exit13

72:                                               ; preds = %70
  %73 = load ptr, ptr %53, align 8
  %74 = getelementptr inbounds i8, ptr %73, i64 16
  %75 = load ptr, ptr %74, align 8
  call void %75(ptr noundef nonnull align 8 dereferenceable(16) %53) #20
  %76 = getelementptr inbounds i8, ptr %53, i64 12
  %77 = load i8, ptr @__libc_single_threaded, align 1
  %.not.i.i.i.i.i.i10 = icmp eq i8 %77, 0
  br i1 %.not.i.i.i.i.i.i10, label %81, label %78

78:                                               ; preds = %72
  %79 = load i32, ptr %76, align 4
  %80 = add nsw i32 %79, -1
  store i32 %80, ptr %76, align 4
  br label %83

81:                                               ; preds = %72
  %82 = atomicrmw volatile add ptr %76, i32 -1 acq_rel, align 4
  br label %83

83:                                               ; preds = %81, %78
  %.0.i.i.i.i.i.i11 = phi i32 [ %79, %78 ], [ %82, %81 ]
  %84 = icmp eq i32 %.0.i.i.i.i.i.i11, 1
  br i1 %84, label %_ZNSt16_Sp_counted_baseILN9__gnu_cxx12_Lock_policyE2EE24_M_release_last_use_coldEv.exit.sink.split.i.i.i.i12, label %_ZNSt10shared_ptrIN2cv15highgui_backend8UIWindowEED2Ev.exit13

_ZNSt16_Sp_counted_baseILN9__gnu_cxx12_Lock_policyE2EE24_M_release_last_use_coldEv.exit.sink.split.i.i.i.i12: ; preds = %83, %59
  %85 = load ptr, ptr %53, align 8
  %86 = getelementptr inbounds i8, ptr %85, i64 24
  %87 = load ptr, ptr %86, align 8
  call void %87(ptr noundef nonnull align 8 dereferenceable(16) %53) #20
  br label %_ZNSt10shared_ptrIN2cv15highgui_backend8UIWindowEED2Ev.exit13

_ZNSt10shared_ptrIN2cv15highgui_backend8UIWindowEED2Ev.exit13: ; preds = %_ZNSt16_Sp_counted_baseILN9__gnu_cxx12_Lock_policyE2EE24_M_release_last_use_coldEv.exit.sink.split.i.i.i.i12, %83, %70, %.critedge
  %88 = call noundef ptr @_ZNKSt7__cxx1112basic_stringIcSt11char_traitsIcESaIcEE5c_strEv(ptr noundef nonnull align 8 dereferenceable(32) %0) #20
  invoke void @cvDestroyWindow(ptr noundef %88)
          to label %_ZNSt10shared_ptrIN2cv15highgui_backend8UIWindowEED2Ev.exit unwind label %11

_ZNSt10shared_ptrIN2cv15highgui_backend8UIWindowEED2Ev.exit: ; preds = %_ZNSt16_Sp_counted_baseILN9__gnu_cxx12_Lock_policyE2EE24_M_release_last_use_coldEv.exit.sink.split.i.i.i.i, %47, %34, %15, %_ZNSt10shared_ptrIN2cv15highgui_backend8UIWindowEED2Ev.exit13
  %89 = getelementptr inbounds i8, ptr %2, i64 8
  %90 = load i32, ptr %89, align 8
  %.not.i = icmp eq i32 %90, 0
  br i1 %.not.i, label %_ZN2cv5utils5trace7details6RegionD2Ev.exit, label %91

91:                                               ; preds = %_ZNSt10shared_ptrIN2cv15highgui_backend8UIWindowEED2Ev.exit
  invoke void @_ZN2cv5utils5trace7details6Region7destroyEv(ptr noundef nonnull align 8 dereferenceable(12) %2)
          to label %_ZN2cv5utils5trace7details6RegionD2Ev.exit unwind label %92

92:                                               ; preds = %91
  %93 = landingpad { ptr, i32 }
          catch ptr null
  %94 = extractvalue { ptr, i32 } %93, 0
  call void @__clang_call_terminate(ptr %94) #23
  unreachable

_ZN2cv5utils5trace7details6RegionD2Ev.exit:       ; preds = %_ZNSt10shared_ptrIN2cv15highgui_backend8UIWindowEED2Ev.exit, %91
  ret void

95:                                               ; preds = %13, %11
  %.pn = phi { ptr, i32 } [ %12, %11 ], [ %14, %13 ]
  call void @_ZN2cv5utils5trace7details6RegionD2Ev(ptr noundef nonnull align 8 dereferenceable(12) %2) #20
  resume { ptr, i32 } %.pn
}